target datalayout = "e-m:e-p270:32:32-p271:32:32-p272:64:64-i64:64-i128:128-f80:128-n8:16:32:64-S128"
target triple = "x86_64-unknown-linux-gnu"

%class.mpq = type { %class.mpz, %class.mpz }
%class.mpz = type { i32, i8, ptr }
%class.bound_propagator = type { ptr, ptr, %class.linear_equation_manager, %class.svector.4, %class.svector.0, %class.svector.0, %class.ptr_vector, %class.ptr_vector, %class.vector.7, %class.svector.8, i32, %class.svector.2, %class.svector.2, %class.svector.2, i32, i32, %class.mpq, %class.svector.10, %class.svector.2, i32, double, double, double, i32, i32, i32, %class.svector.12 }
%class.linear_equation_manager = type { ptr, ptr, %class.numeral_buffer, %class.numeral_buffer, %class.svector.0, %class.svector.2 }
%class.numeral_buffer = type { ptr, %class.svector }
%class.svector = type { %class.vector }
%class.vector = type { ptr }
%class.svector.4 = type { %class.vector.5 }
%class.vector.5 = type { ptr }
%class.svector.0 = type { %class.vector.1 }
%class.vector.1 = type { ptr }
%class.ptr_vector = type { %class.vector.6 }
%class.vector.6 = type { ptr }
%class.vector.7 = type { ptr }
%class.svector.8 = type { %class.vector.9 }
%class.vector.9 = type { ptr }
%class.svector.10 = type { %class.vector.11 }
%class.vector.11 = type { ptr }
%class.svector.2 = type { %class.vector.3 }
%class.vector.3 = type { ptr }
%class.svector.12 = type { %class.vector.13 }
%class.vector.13 = type { ptr }
%"class.bound_propagator::constraint" = type { i8, i32, i32, i32, %union.anon.14 }
%union.anon.14 = type { ptr }

; Function Attrs: mustprogress nounwind uwtable
define linkonce_odr hidden noundef nonnull align 8 dereferenceable(24) ptr @_ZN6vectorIN16bound_propagator10constraintELb0EjEixEj(ptr noundef nonnull align 8 dereferenceable(8) %this, i32 noundef %idx) #5 comdat align 2 {
entry:
  %this.addr = alloca ptr, align 8
  %idx.addr = alloca i32, align 4
  store ptr %this, ptr %this.addr, align 8
  store i32 %idx, ptr %idx.addr, align 4
  %this1 = load ptr, ptr %this.addr, align 8
  %m_data = getelementptr inbounds %class.vector.5, ptr %this1, i32 0, i32 0
  %0 = load ptr, ptr %m_data, align 8
  %1 = load i32, ptr %idx.addr, align 4
  %idxprom = zext i32 %1 to i64
  %arrayidx = getelementptr inbounds %"class.bound_propagator::constraint", ptr %0, i64 %idxprom
  ret ptr %arrayidx
}

; Function Attrs: mustprogress uwtable
define hidden noundef zeroext i1 @_ZN16bound_propagator9propagateEj(ptr noundef nonnull align 8 dereferenceable(280) %this, i32 noundef %c_idx) #4 align 2 {
entry:
  %retval = alloca i1, align 1
  %this.addr = alloca ptr, align 8
  %c_idx.addr = alloca i32, align 4
  %c = alloca ptr, align 8
  store ptr %this, ptr %this.addr, align 8
  store i32 %c_idx, ptr %c_idx.addr, align 4
  %this1 = load ptr, ptr %this.addr, align 8
  %m_constraints = getelementptr inbounds %class.bound_propagator, ptr %this1, i32 0, i32 3
  %0 = load i32, ptr %c_idx.addr, align 4
  %call = call noundef nonnull align 8 dereferenceable(24) ptr @_ZN6vectorIN16bound_propagator10constraintELb0EjEixEj(ptr noundef nonnull align 8 dereferenceable(8) %m_constraints, i32 noundef %0)
  store ptr %call, ptr %c, align 8
  %1 = load ptr, ptr %c, align 8
  %bf.load = load i8, ptr %1, align 8
  %bf.lshr = lshr i8 %bf.load, 2
  %bf.clear = and i8 %bf.lshr, 1
  %bf.cast = zext i8 %bf.clear to i32
  %tobool = icmp ne i32 %bf.cast, 0
  br i1 %tobool, label %if.then, label %if.end

if.then:                                          ; preds = %entry
  store i1 false, ptr %retval, align 1
  br label %return

if.end:                                           ; preds = %entry
  %2 = load ptr, ptr %c, align 8
  %bf.load2 = load i8, ptr %2, align 8
  %bf.clear3 = and i8 %bf.load2, 3
  %bf.cast4 = zext i8 %bf.clear3 to i32
  %cmp = icmp eq i32 %bf.cast4, 0
  br i1 %cmp, label %if.then5, label %if.end7

if.then5:                                         ; preds = %if.end
  %3 = load i32, ptr %c_idx.addr, align 4
  %call6 = call noundef zeroext i1 @_ZN16bound_propagator12propagate_eqEj(ptr noundef nonnull align 8 dereferenceable(280) %this1, i32 noundef %3)
  store i1 %call6, ptr %retval, align 1
  br label %return

if.end7:                                          ; preds = %if.end
  store i1 false, ptr %retval, align 1
  br label %return

return:                                           ; preds = %if.end7, %if.then5, %if.then
  %4 = load i1, ptr %retval, align 1
  ret i1 %4
}