; Function Attrs: mustprogress uwtable
define hidden noundef zeroext i1 @_ZN16bound_propagator9propagateEj(ptr noundef nonnull align 8 dereferenceable(280) %this, i32 noundef %c_idx) local_unnamed_addr #3 align 2 {
entry:
  %m_constraints = getelementptr inbounds i8, ptr %this, i64 80
  %0 = load ptr, ptr %m_constraints, align 8
  %idxprom.i = zext i32 %c_idx to i64
  %arrayidx.i = getelementptr inbounds %"class.bound_propagator::constraint", ptr %0, i64 %idxprom.i
  %bf.load = load i8, ptr %arrayidx.i, align 8
  %1 = and i8 %bf.load, 7
  %or.cond = icmp eq i8 %1, 0
  br i1 %or.cond, label %if.then5, label %return

if.then5:                                         ; preds = %entry
  %call6 = tail call noundef zeroext i1 @_ZN16bound_propagator12propagate_eqEj(ptr noundef nonnull align 8 dereferenceable(280) %this, i32 noundef %c_idx)
  br label %return

return:                                           ; preds = %entry, %if.then5
  %retval.0 = phi i1 [ %call6, %if.then5 ], [ false, %entry ]
  ret i1 %retval.0
}